; Function Attrs: mustprogress nofree norecurse nosync nounwind willreturn memory(argmem: readwrite) uwtable
define hidden void @png_set_packing(ptr noalias noundef %0) local_unnamed_addr #0 {
  %2 = icmp eq ptr %0, null
  br i1 %2, label %11, label %3

3:                                                ; preds = %1
  %4 = getelementptr inbounds i8, ptr %0, i64 520
  %5 = load i8, ptr %4, align 8
  %6 = icmp ult i8 %5, 8
  br i1 %6, label %7, label %11

7:                                                ; preds = %3
  %8 = getelementptr inbounds i8, ptr %0, i64 300
  %9 = load i32, ptr %8, align 4
  %10 = or i32 %9, 4
  store i32 %10, ptr %8, align 4
  br label %11

11:                                               ; preds = %1, %7, %3
  ret void
}